target datalayout = "e-m:e-p270:32:32-p271:32:32-p272:64:64-i64:64-i128:128-f80:128-n8:16:32:64-S128"
target triple = "x86_64-pc-linux-gnu"

%union.anon = type { %struct.anon.0 }
%struct.anon.0 = type { ptr, i64, i32 }
%struct.object_info = type { ptr, ptr, ptr, ptr, ptr, ptr, i32, %union.anon }

@.str.78 = private unnamed_addr constant [27 x i8] c"size_t overflow: %lu + %lu\00", align 1
@.str.79 = private unnamed_addr constant [27 x i8] c"size_t overflow: %lu * %lu\00", align 1
@.str.80 = private unnamed_addr constant [65 x i8] c"object too large to read on this platform: %lu is cut off to %lu\00", align 1

; Function Attrs: inlinehint nounwind uwtable
define internal i64 @cast_size_t_to_ulong(i64 noundef %0) #7 {
  %2 = alloca i64, align 8
  store i64 %0, ptr %2, align 8, !tbaa !10
  %3 = load i64, ptr %2, align 8, !tbaa !10
  %4 = load i64, ptr %2, align 8, !tbaa !10
  %5 = icmp ne i64 %3, %4
  br i1 %5, label %6, label %9

6:                                                ; preds = %1
  %7 = load i64, ptr %2, align 8, !tbaa !10
  %8 = load i64, ptr %2, align 8, !tbaa !10
  call void (ptr, ...) @die(ptr noundef @.str.80, i64 noundef %7, i64 noundef %8) #13
  unreachable

9:                                                ; preds = %1
  %10 = load i64, ptr %2, align 8, !tbaa !10
  ret i64 %10
}

; Function Attrs: inlinehint nounwind uwtable
define internal i64 @st_add(i64 noundef %0, i64 noundef %1) #7 {
  %3 = alloca i64, align 8
  %4 = alloca i64, align 8
  store i64 %0, ptr %3, align 8, !tbaa !10
  store i64 %1, ptr %4, align 8, !tbaa !10
  %5 = load i64, ptr %4, align 8, !tbaa !10
  %6 = load i64, ptr %3, align 8, !tbaa !10
  %7 = sub i64 -1, %6
  %8 = icmp ugt i64 %5, %7
  br i1 %8, label %9, label %12

9:                                                ; preds = %2
  %10 = load i64, ptr %3, align 8, !tbaa !10
  %11 = load i64, ptr %4, align 8, !tbaa !10
  call void (ptr, ...) @die(ptr noundef @.str.78, i64 noundef %10, i64 noundef %11) #13
  unreachable

12:                                               ; preds = %2
  %13 = load i64, ptr %3, align 8, !tbaa !10
  %14 = load i64, ptr %4, align 8, !tbaa !10
  %15 = add i64 %13, %14
  ret i64 %15
}

; Function Attrs: inlinehint nounwind uwtable
define internal i64 @st_mult(i64 noundef %0, i64 noundef %1) #7 {
  %3 = alloca i64, align 8
  %4 = alloca i64, align 8
  store i64 %0, ptr %3, align 8, !tbaa !10
  store i64 %1, ptr %4, align 8, !tbaa !10
  %5 = load i64, ptr %3, align 8, !tbaa !10
  %6 = icmp ne i64 %5, 0
  br i1 %6, label %7, label %15

7:                                                ; preds = %2
  %8 = load i64, ptr %4, align 8, !tbaa !10
  %9 = load i64, ptr %3, align 8, !tbaa !10
  %10 = udiv i64 -1, %9
  %11 = icmp ugt i64 %8, %10
  br i1 %11, label %12, label %15

12:                                               ; preds = %7
  %13 = load i64, ptr %3, align 8, !tbaa !10
  %14 = load i64, ptr %4, align 8, !tbaa !10
  call void (ptr, ...) @die(ptr noundef @.str.79, i64 noundef %13, i64 noundef %14) #13
  unreachable

15:                                               ; preds = %7, %2
  %16 = load i64, ptr %3, align 8, !tbaa !10
  %17 = load i64, ptr %4, align 8, !tbaa !10
  %18 = mul i64 %16, %17
  ret i64 %18
}

; Function Attrs: nounwind uwtable
define dso_local i32 @parse_loose_header(ptr noundef %0, ptr noundef %1) #0 {
  %3 = alloca i32, align 4
  %4 = alloca ptr, align 8
  %5 = alloca ptr, align 8
  %6 = alloca ptr, align 8
  %7 = alloca i64, align 8
  %8 = alloca i32, align 4
  %9 = alloca i32, align 4
  %10 = alloca i8, align 1
  %11 = alloca i32, align 4
  %12 = alloca i64, align 8
  store ptr %0, ptr %4, align 8, !tbaa !12
  store ptr %1, ptr %5, align 8, !tbaa !126
  call void @llvm.lifetime.start.p0(i64 8, ptr %6) #14
  %13 = load ptr, ptr %4, align 8, !tbaa !12
  store ptr %13, ptr %6, align 8, !tbaa !12
  call void @llvm.lifetime.start.p0(i64 8, ptr %7) #14
  call void @llvm.lifetime.start.p0(i64 4, ptr %8) #14
  call void @llvm.lifetime.start.p0(i64 4, ptr %9) #14
  store i32 0, ptr %9, align 4, !tbaa !43
  br label %14

14:                                               ; preds = %31, %2
  call void @llvm.lifetime.start.p0(i64 1, ptr %10) #14
  %15 = load ptr, ptr %4, align 8, !tbaa !12
  %16 = getelementptr inbounds nuw i8, ptr %15, i32 1
  store ptr %16, ptr %4, align 8, !tbaa !12
  %17 = load i8, ptr %15, align 1, !tbaa !58
  store i8 %17, ptr %10, align 1, !tbaa !58
  %18 = load i8, ptr %10, align 1, !tbaa !58
  %19 = icmp ne i8 %18, 0
  br i1 %19, label %21, label %20

20:                                               ; preds = %14
  store i32 -1, ptr %3, align 4
  store i32 1, ptr %11, align 4
  br label %29

21:                                               ; preds = %14
  %22 = load i8, ptr %10, align 1, !tbaa !58
  %23 = sext i8 %22 to i32
  %24 = icmp eq i32 %23, 32
  br i1 %24, label %25, label %26

25:                                               ; preds = %21
  store i32 2, ptr %11, align 4
  br label %29

26:                                               ; preds = %21
  %27 = load i32, ptr %9, align 4, !tbaa !43
  %28 = add nsw i32 %27, 1
  store i32 %28, ptr %9, align 4, !tbaa !43
  store i32 0, ptr %11, align 4
  br label %29

29:                                               ; preds = %26, %25, %20
  call void @llvm.lifetime.end.p0(i64 1, ptr %10) #14
  %30 = load i32, ptr %11, align 4
  switch i32 %30, label %109 [
    i32 0, label %31
    i32 2, label %32
  ]

31:                                               ; preds = %29
  br label %14

32:                                               ; preds = %29
  %33 = load ptr, ptr %6, align 8, !tbaa !12
  %34 = load i32, ptr %9, align 4, !tbaa !43
  %35 = sext i32 %34 to i64
  %36 = call i32 @type_from_string_gently(ptr noundef %33, i64 noundef %35, i32 noundef 1)
  store i32 %36, ptr %8, align 4, !tbaa !43
  %37 = load ptr, ptr %5, align 8, !tbaa !126
  %38 = getelementptr inbounds nuw %struct.object_info, ptr %37, i32 0, i32 4
  %39 = load ptr, ptr %38, align 8, !tbaa !128
  %40 = icmp ne ptr %39, null
  br i1 %40, label %41, label %48

41:                                               ; preds = %32
  %42 = load ptr, ptr %5, align 8, !tbaa !126
  %43 = getelementptr inbounds nuw %struct.object_info, ptr %42, i32 0, i32 4
  %44 = load ptr, ptr %43, align 8, !tbaa !128
  %45 = load ptr, ptr %6, align 8, !tbaa !12
  %46 = load i32, ptr %9, align 4, !tbaa !43
  %47 = sext i32 %46 to i64
  call void @strbuf_add(ptr noundef %44, ptr noundef %45, i64 noundef %47)
  br label %48

48:                                               ; preds = %41, %32
  %49 = load ptr, ptr %5, align 8, !tbaa !126
  %50 = getelementptr inbounds nuw %struct.object_info, ptr %49, i32 0, i32 0
  %51 = load ptr, ptr %50, align 8, !tbaa !130
  %52 = icmp ne ptr %51, null
  br i1 %52, label %53, label %58

53:                                               ; preds = %48
  %54 = load i32, ptr %8, align 4, !tbaa !43
  %55 = load ptr, ptr %5, align 8, !tbaa !126
  %56 = getelementptr inbounds nuw %struct.object_info, ptr %55, i32 0, i32 0
  %57 = load ptr, ptr %56, align 8, !tbaa !130
  store i32 %54, ptr %57, align 4, !tbaa !43
  br label %58

58:                                               ; preds = %53, %48
  %59 = load ptr, ptr %4, align 8, !tbaa !12
  %60 = getelementptr inbounds nuw i8, ptr %59, i32 1
  store ptr %60, ptr %4, align 8, !tbaa !12
  %61 = load i8, ptr %59, align 1, !tbaa !58
  %62 = sext i8 %61 to i32
  %63 = sub nsw i32 %62, 48
  %64 = sext i32 %63 to i64
  store i64 %64, ptr %7, align 8, !tbaa !10
  %65 = load i64, ptr %7, align 8, !tbaa !10
  %66 = icmp ugt i64 %65, 9
  br i1 %66, label %67, label %68

67:                                               ; preds = %58
  store i32 -1, ptr %3, align 4
  store i32 1, ptr %11, align 4
  br label %109

68:                                               ; preds = %58
  %69 = load i64, ptr %7, align 8, !tbaa !10
  %70 = icmp ne i64 %69, 0
  br i1 %70, label %71, label %92

71:                                               ; preds = %68
  br label %72

72:                                               ; preds = %90, %71
  call void @llvm.lifetime.start.p0(i64 8, ptr %12) #14
  %73 = load ptr, ptr %4, align 8, !tbaa !12
  %74 = load i8, ptr %73, align 1, !tbaa !58
  %75 = sext i8 %74 to i32
  %76 = sub nsw i32 %75, 48
  %77 = sext i32 %76 to i64
  store i64 %77, ptr %12, align 8, !tbaa !10
  %78 = load i64, ptr %12, align 8, !tbaa !10
  %79 = icmp ugt i64 %78, 9
  br i1 %79, label %80, label %81

80:                                               ; preds = %72
  store i32 4, ptr %11, align 4
  br label %88

81:                                               ; preds = %72
  %82 = load ptr, ptr %4, align 8, !tbaa !12
  %83 = getelementptr inbounds nuw i8, ptr %82, i32 1
  store ptr %83, ptr %4, align 8, !tbaa !12
  %84 = load i64, ptr %7, align 8, !tbaa !10
  %85 = call i64 @st_mult(i64 noundef %84, i64 noundef 10)
  %86 = load i64, ptr %12, align 8, !tbaa !10
  %87 = call i64 @st_add(i64 noundef %85, i64 noundef %86)
  store i64 %87, ptr %7, align 8, !tbaa !10
  store i32 0, ptr %11, align 4
  br label %88

88:                                               ; preds = %81, %80
  call void @llvm.lifetime.end.p0(i64 8, ptr %12) #14
  %89 = load i32, ptr %11, align 4
  switch i32 %89, label %111 [
    i32 0, label %90
    i32 4, label %91
  ]

90:                                               ; preds = %88
  br label %72

91:                                               ; preds = %88
  br label %92

92:                                               ; preds = %91, %68
  %93 = load ptr, ptr %5, align 8, !tbaa !126
  %94 = getelementptr inbounds nuw %struct.object_info, ptr %93, i32 0, i32 1
  %95 = load ptr, ptr %94, align 8, !tbaa !131
  %96 = icmp ne ptr %95, null
  br i1 %96, label %97, label %103

97:                                               ; preds = %92
  %98 = load i64, ptr %7, align 8, !tbaa !10
  %99 = call i64 @cast_size_t_to_ulong(i64 noundef %98)
  %100 = load ptr, ptr %5, align 8, !tbaa !126
  %101 = getelementptr inbounds nuw %struct.object_info, ptr %100, i32 0, i32 1
  %102 = load ptr, ptr %101, align 8, !tbaa !131
  store i64 %99, ptr %102, align 8, !tbaa !10
  br label %103

103:                                              ; preds = %97, %92
  %104 = load ptr, ptr %4, align 8, !tbaa !12
  %105 = load i8, ptr %104, align 1, !tbaa !58
  %106 = icmp ne i8 %105, 0
  br i1 %106, label %107, label %108

107:                                              ; preds = %103
  store i32 -1, ptr %3, align 4
  store i32 1, ptr %11, align 4
  br label %109

108:                                              ; preds = %103
  store i32 0, ptr %3, align 4
  store i32 1, ptr %11, align 4
  br label %109

109:                                              ; preds = %108, %107, %67, %29
  call void @llvm.lifetime.end.p0(i64 4, ptr %9) #14
  call void @llvm.lifetime.end.p0(i64 4, ptr %8) #14
  call void @llvm.lifetime.end.p0(i64 8, ptr %7) #14
  call void @llvm.lifetime.end.p0(i64 8, ptr %6) #14
  %110 = load i32, ptr %3, align 4
  ret i32 %110

111:                                              ; preds = %88
  unreachable
}