; Function Attrs: nounwind uwtable
define dso_local range(i32 -1, 1) i32 @parse_loose_header(ptr noundef %0, ptr noundef readonly captures(none) %1) local_unnamed_addr #1 {
  br label %3

3:                                                ; preds = %6, %2
  %.033 = phi i32 [ 0, %2 ], [ %7, %6 ]
  %.030 = phi ptr [ %0, %2 ], [ %4, %6 ]
  %4 = getelementptr inbounds nuw i8, ptr %.030, i64 1
  %5 = load i8, ptr %.030, align 1, !tbaa !51
  switch i8 %5, label %6 [
    i8 0, label %.thread
    i8 32, label %8
  ]

6:                                                ; preds = %3
  %7 = add nuw nsw i32 %.033, 1
  br label %3

8:                                                ; preds = %3
  %9 = zext nneg i32 %.033 to i64
  %10 = tail call i32 @type_from_string_gently(ptr noundef %0, i64 noundef %9, i32 noundef 1) #27
  %11 = getelementptr inbounds nuw i8, ptr %1, i64 32
  %12 = load ptr, ptr %11, align 8, !tbaa !112
  %.not43 = icmp eq ptr %12, null
  br i1 %.not43, label %14, label %13

13:                                               ; preds = %8
  tail call void @strbuf_add(ptr noundef nonnull %12, ptr noundef %0, i64 noundef %9) #27
  br label %14

14:                                               ; preds = %13, %8
  %15 = load ptr, ptr %1, align 8, !tbaa !116
  %.not44 = icmp eq ptr %15, null
  br i1 %.not44, label %17, label %16

16:                                               ; preds = %14
  store i32 %10, ptr %15, align 4, !tbaa !44
  br label %17

17:                                               ; preds = %16, %14
  %18 = load i8, ptr %4, align 1, !tbaa !51
  %19 = sext i8 %18 to i64
  %20 = add nsw i64 %19, -48
  %21 = icmp ugt i64 %20, 9
  br i1 %21, label %.thread, label %22

22:                                               ; preds = %17
  %23 = getelementptr inbounds nuw i8, ptr %.030, i64 2
  %.not45 = icmp eq i64 %20, 0
  br i1 %.not45, label %.thread54, label %.preheader

.preheader:                                       ; preds = %22
  %24 = load i8, ptr %23, align 1, !tbaa !51
  %25 = sext i8 %24 to i64
  %26 = add nsw i64 %25, -48
  %27 = icmp ugt i64 %26, 9
  br i1 %27, label %.thread54, label %.lr.ph

.lr.ph:                                           ; preds = %.preheader, %35
  %28 = phi i64 [ %39, %35 ], [ %26, %.preheader ]
  %.23270 = phi ptr [ %29, %35 ], [ %23, %.preheader ]
  %.13669 = phi i64 [ %36, %35 ], [ %20, %.preheader ]
  %29 = getelementptr inbounds nuw i8, ptr %.23270, i64 1
  %mul.ov.i = icmp ugt i64 %.13669, 1844674407370955161
  br i1 %mul.ov.i, label %30, label %st_mult.exit

30:                                               ; preds = %.lr.ph
  tail call void (ptr, ...) @die(ptr noundef nonnull @.str.79, i64 noundef %.13669, i64 noundef 10) #26
  unreachable

st_mult.exit:                                     ; preds = %.lr.ph
  %31 = mul nuw i64 %.13669, 10
  %32 = xor i64 %31, -1
  %33 = icmp ugt i64 %28, %32
  br i1 %33, label %34, label %35

34:                                               ; preds = %st_mult.exit
  tail call void (ptr, ...) @die(ptr noundef nonnull @.str.78, i64 noundef %31, i64 noundef range(i64 0, 10) %28) #26
  unreachable

35:                                               ; preds = %st_mult.exit
  %36 = add i64 %28, %31
  %37 = load i8, ptr %29, align 1, !tbaa !51
  %38 = sext i8 %37 to i64
  %39 = add nsw i64 %38, -48
  %40 = icmp ugt i64 %39, 9
  br i1 %40, label %.thread54, label %.lr.ph

.thread54:                                        ; preds = %35, %.preheader, %22
  %.035 = phi i64 [ 0, %22 ], [ %20, %.preheader ], [ %36, %35 ]
  %.131 = phi ptr [ %23, %22 ], [ %23, %.preheader ], [ %29, %35 ]
  %41 = getelementptr inbounds nuw i8, ptr %1, i64 8
  %42 = load ptr, ptr %41, align 8, !tbaa !117
  %.not46 = icmp eq ptr %42, null
  br i1 %.not46, label %44, label %43

43:                                               ; preds = %.thread54
  store i64 %.035, ptr %42, align 8, !tbaa !94
  br label %44

44:                                               ; preds = %43, %.thread54
  %45 = load i8, ptr %.131, align 1, !tbaa !51
  %.not47 = icmp ne i8 %45, 0
  %. = sext i1 %.not47 to i32
  br label %.thread

.thread:                                          ; preds = %3, %44, %17
  %.2 = phi i32 [ -1, %17 ], [ %., %44 ], [ -1, %3 ]
  ret i32 %.2
}